(dp0
S'Reactions'
p1
(dp2
S'Input'
p3
(lp4
(dp5
S'gas_reacs_prods'
p6
(lp7
S'A'
p8
aS'-1'
p9
asS'Name'
p10
S'A_adsorption'
p11
sS'neighboring'
p12
S''
p13
sS'initial'
p14
(lp15
S'    1 *  1'
p16
asS'nSites'
p17
I1
sS'variant'
p18
(lp19
(dp20
g10
S'HexLattice'
p21
sS'pe_ratio'
p22
F1e-08
sS'prox_factor'
p23
g13
sS'activ_eng'
p24
F0.0
sS'pre_expon'
p25
F1000000000.0
sS'site_types'
p26
(lp27
S'StTp1'
p28
asasS'final'
p29
(lp30
S'    1 A*  1'
p31
asa(dp32
g6
(lp33
S'B'
p34
aS'-1'
p35
asg10
S'B_adsorption'
p36
sg12
g13
sg14
(lp37
S'    1 *  1'
p38
asg17
I1
sg18
(lp39
(dp40
g10
S'HexLattice'
p41
sg22
F1e-08
sg23
g13
sg24
F0.0
sg25
F1000000000.0
sg26
(lp42
S'StTp1'
p43
asasg29
(lp44
S'    1 B*  1'
p45
asa(dp46
g6
g13
sg10
S'A*_diff'
p47
sg12
(lp48
S'1-2'
p49
asg14
(lp50
S'    1 A*    1'
p51
aS'    2 *     1'
p52
asg17
I2
sg18
(lp53
(dp54
g10
S'HexLattice'
p55
sg22
F1.0
sg23
g13
sg24
F0.5
sg25
F10000000000000.0
sg26
(lp56
S'StTp1'
p57
aS'StTp1'
p58
asasg29
(lp59
S'    1 *     1'
p60
aS'    2 A*    1'
p61
asa(dp62
g6
g13
sg10
S'2A*_association'
p63
sg12
(lp64
S'1-2'
p65
asg14
(lp66
S'    1 A*    1'
p67
aS'    2 A*    1'
p68
asg17
I2
sg18
(lp69
(dp70
g10
S'NiPt_top_fcc_fcc'
p71
sg22
F1e-10
sg23
F0.5
sg24
F2.0
sg25
F20000000000000.0
sg26
(lp72
S'StTp1'
p73
aS'StTp1'
p74
asasg29
(lp75
S'    1 B*    1'
p76
aS'    2 *     1'
p77
asasS'UniqNu'
p78
g13
sS'Names'
p79
g13
sS'Nu'
p80
g13
ssS'StateInput'
p81
(dp82
S'Type'
p83
g13
sS'Struct'
p84
g13
ssS'Specnum'
p85
(dp86
S'E'
p87
g13
sS'Spacing'
p88
g13
sS'nEvents'
p89
g13
sS't'
p90
g13
sS'spec'
p91
g13
sS'T'
p92
g13
ssS'ACF'
p93
(dp94
S'TauSep'
p95
(dp96
S'PostBurnIn'
p97
g13
sS'BurnIn'
p98
g13
ssg88
(dp99
S'String'
p100
g13
sS'Value'
p101
g13
sssS'Lattice'
p102
(dp103
g3
(lp104
S'lattice default_choice'
p105
ag13
aS'hexagonal_periodic 1.0 100 100'
p106
ag13
aS'end_lattice'
p107
assS'Binary'
p108
(dp109
S'cluster'
p110
g13
sS'propCounter'
p111
g13
sS'prop'
p112
g13
ssS'Cluster'
p113
(dp114
S'nClusterVariant'
p115
I3
sg3
(lp116
(dp117
g18
(lp118
(dp119
S'graph_multiplicity'
p120
S'1'
p121
sS'eng'
p122
S'-1.0'
p123
sg10
S'A_Hex'
p124
sg26
(lp125
S'StTp1'
p126
asasg12
g13
sg17
I1
sg10
S'A_point'
p127
sS'latstate'
p128
(lp129
S'    1 A*  1'
p130
asa(dp131
g18
(lp132
(dp133
g120
g121
sg122
S'-2.0'
p134
sg10
S'B_Hex'
p135
sg26
(lp136
S'StTp1'
p137
asasg12
g13
sg17
I1
sg10
S'B_point'
p138
sg128
(lp139
S'    1 B*  1'
p140
asa(dp141
g18
(lp142
(dp143
g120
S'2'
p144
sg122
S'0.25'
p145
sg10
S'Hex_Pair'
p146
sg26
(lp147
S'StTp1'
p148
aS'StTp1'
p149
asasg12
(lp150
S'1-2'
p151
asg17
I2
sg10
S'A_Pair'
p152
sg128
(lp153
S'    1 A*  1'
p154
aS'    2 A*  1'
p155
asasS'nCluster'
p156
I3
ssS'Procstat'
p157
(dp158
g88
g13
sg90
g13
sS'events'
p159
g13
ssS'Report'
p160
(dp161
S'hist'
p162
(lp163
S'off'
p164
ag13
asS'specnum'
p165
(lp166
S'event'
p167
aI10000
asg167
S'off'
p168
sS'procstat'
p169
(lp170
g167
aI10000
assS'StiffnessRecondition'
p171
(dp172
S'Mode'
p173
g13
sS'APSdF'
p174
g13
ssS'Conditions'
p175
(dp176
S'MaxStep'
p177
S'inf'
p178
sS'SimTime'
p179
(dp180
S'Max'
p181
Finf
sS'Actual'
p182
g13
ssS'CPUTime'
p183
g13
sS'P'
p184
F1.0
sg89
g13
sS'Seed'
p185
I545926445
sg92
F500.0
sS'restart'
p186
I00
sS'WallTime'
p187
(dp188
g181
I1800
sg182
g13
sssS'Species'
p189
(dp190
S'gas_MW'
p191
(lp192
F1.0
aF2.0
asS'gas_spec'
p193
(lp194
g8
ag34
asS'gas_eng'
p195
(lp196
F0.0
aF-1.0
asS'surf_spec'
p197
(lp198
S'A*'
p199
aS'B*'
p200
asS'n_gas'
p201
I2
sS'n_surf'
p202
I2
sS'surf_dent'
p203
(lp204
I1
aI1
asS'gas_molfrac'
p205
(lp206
F1.0
aF0.0
assS'History'
p207
(dp208
S'Final'
p209
g13
ss.